; ModuleID = '54/329.c'
source_filename = "54/329.c"
target datalayout = "e-m:e-p270:32:32-p271:32:32-p272:64:64-i64:64-f80:128-n8:16:32:64-S128"
target triple = "x86_64-pc-linux-gnu"

@.str = private unnamed_addr constant [5 x i8] c"%d%d\00", align 1
@.str.1 = private unnamed_addr constant [4 x i8] c"%d\0A\00", align 1

; Function Attrs: noinline nounwind uwtable
define dso_local void @main() #0 {
  %1 = alloca i32, align 4
  %2 = alloca i32, align 4
  %3 = alloca i32, align 4
  %4 = alloca i32, align 4
  %5 = alloca i32, align 4
  %6 = alloca i32, align 4
  %7 = alloca i32, align 4
  %8 = alloca i32, align 4
  %9 = alloca i32, align 4
  %10 = alloca i32, align 4
  store i32 0, i32* %5, align 4
  %11 = call i32 (i8*, ...) @__isoc99_scanf(i8* getelementptr inbounds ([5 x i8], [5 x i8]* @.str, i64 0, i64 0), i32* %1, i32* %2)
  store i32 1, i32* %3, align 4
  br label %12

12:                                               ; preds = %60, %0
  %13 = load i32, i32* %5, align 4
  %14 = icmp eq i32 %13, 0
  br i1 %14, label %15, label %63

15:                                               ; preds = %12
  %16 = load i32, i32* %1, align 4
  %17 = load i32, i32* %3, align 4
  %18 = mul nsw i32 %16, %17
  %19 = load i32, i32* %2, align 4
  %20 = add nsw i32 %18, %19
  store i32 %20, i32* %9, align 4
  store i32 1, i32* %4, align 4
  br label %21

21:                                               ; preds = %51, %15
  %22 = load i32, i32* %4, align 4
  %23 = load i32, i32* %1, align 4
  %24 = sub nsw i32 %23, 1
  %25 = icmp sle i32 %22, %24
  br i1 %25, label %26, label %54

26:                                               ; preds = %21
  %27 = load i32, i32* %9, align 4
  store i32 %27, i32* %6, align 4
  %28 = load i32, i32* %1, align 4
  %29 = load i32, i32* %9, align 4
  %30 = mul nsw i32 %28, %29
  %31 = load i32, i32* %1, align 4
  %32 = sub nsw i32 %31, 1
  %33 = sdiv i32 %30, %32
  %34 = load i32, i32* %2, align 4
  %35 = add nsw i32 %33, %34
  store i32 %35, i32* %10, align 4
  %36 = load i32, i32* %10, align 4
  store i32 %36, i32* %9, align 4
  %37 = load i32, i32* %10, align 4
  %38 = load i32, i32* %2, align 4
  %39 = sub nsw i32 %37, %38
  %40 = load i32, i32* %1, align 4
  %41 = sub nsw i32 %40, 1
  %42 = mul nsw i32 %39, %41
  store i32 %42, i32* %7, align 4
  %43 = load i32, i32* %1, align 4
  %44 = load i32, i32* %6, align 4
  %45 = mul nsw i32 %43, %44
  store i32 %45, i32* %8, align 4
  %46 = load i32, i32* %7, align 4
  %47 = load i32, i32* %8, align 4
  %48 = icmp ne i32 %46, %47
  br i1 %48, label %49, label %50

49:                                               ; preds = %26
  br label %54

50:                                               ; preds = %26
  br label %51

51:                                               ; preds = %50
  %52 = load i32, i32* %4, align 4
  %53 = add nsw i32 %52, 1
  store i32 %53, i32* %4, align 4
  br label %21

54:                                               ; preds = %49, %21
  %55 = load i32, i32* %7, align 4
  %56 = load i32, i32* %8, align 4
  %57 = icmp ne i32 %55, %56
  br i1 %57, label %58, label %59

58:                                               ; preds = %54
  br label %60

59:                                               ; preds = %54
  store i32 1, i32* %5, align 4
  br label %60

60:                                               ; preds = %59, %58
  %61 = load i32, i32* %3, align 4
  %62 = add nsw i32 %61, 1
  store i32 %62, i32* %3, align 4
  br label %12

63:                                               ; preds = %12
  %64 = load i32, i32* %10, align 4
  %65 = call i32 (i8*, ...) @printf(i8* getelementptr inbounds ([4 x i8], [4 x i8]* @.str.1, i64 0, i64 0), i32 %64)
  ret void
}

declare dso_local i32 @__isoc99_scanf(i8*, ...) #1

declare dso_local i32 @printf(i8*, ...) #1


!llvm.module.flags = !{!0}
!llvm.ident = !{!1}

!0 = !{i32 1, !"wchar_size", i32 4}
!1 = !{!"clang version 10.0.0-4ubuntu1 "}
